(lp1
(dp2
S'consonants'
p3
(lp4
S'B'
aS'CH'
p5
aS'D'
aS'DH'
p6
aS'F'
aS'G'
aS'HH'
p7
aS'JH'
p8
aS'K'
aS'L'
aS'M'
aS'N'
aS'NG'
p9
aS'P'
aS'R'
aS'S'
aS'SH'
p10
aS'T'
aS'TH'
p11
aS'V'
aS'W'
aS'Y'
aS'Z'
aS'ZH'
p12
asS'onsets'
p13
(lp14
S'P'
aS'T'
aS'K'
aS'B'
aS'D'
aS'G'
aS'F'
aS'V'
ag11
ag6
aS'S'
aS'Z'
ag10
ag5
ag8
aS'M'
aS'N'
aS'R'
aS'L'
ag7
aS'W'
aS'Y'
aS'P R'
p15
aS'T R'
p16
aS'K R'
p17
aS'B R'
p18
aS'D R'
p19
aS'G R'
p20
aS'F R'
p21
aS'TH R'
p22
aS'SH R'
p23
aS'P L'
p24
aS'K L'
p25
aS'B L'
p26
aS'G L'
p27
aS'F L'
p28
aS'S L'
p29
aS'T W'
p30
aS'K W'
p31
aS'D W'
p32
aS'S W'
p33
aS'S P'
p34
aS'S T'
p35
aS'S K'
p36
aS'S F'
p37
aS'S M'
p38
aS'S N'
p39
aS'G W'
p40
aS'SH W'
p41
aS'S P R'
p42
aS'S P L'
p43
aS'S T R'
p44
aS'S K R'
p45
aS'S K W'
p46
aS'S K L'
p47
aS'TH W'
p48
ag12
aS'P Y'
p49
aS'K Y'
p50
aS'B Y'
p51
aS'F Y'
p52
aS'HH Y'
p53
aS'V Y'
p54
aS'TH Y'
p55
aS'M Y'
p56
aS'S P Y'
p57
aS'S K Y'
p58
aS'G Y'
p59
aS'HH W'
p60
aS''
asS'vowels'
p61
(lp62
S'AA'
p63
aS'AE'
p64
aS'AH'
p65
aS'AO'
p66
aS'AW'
p67
aS'AY'
p68
aS'EH'
p69
aS'ER'
p70
aS'EY'
p71
aS'IH'
p72
aS'IY'
p73
aS'OW'
p74
aS'OY'
p75
aS'UH'
p76
aS'UW'
p77
asa(dp78
S'11'
p79
(dp80
S'OY_L'
p81
c__builtin__
set
p82
((lp83
Vparboil
p84
atRp85
sS'OW_S'
p86
g82
((lp87
Vfructose
p88
atRp89
sS'IY_N'
p90
g82
((lp91
Vsoybean
p92
atRp93
sS'AA_N_Z'
p94
g82
((lp95
Vpecans
p96
atRp97
sS'B_OY'
p98
g82
((lp99
Vcarboy
p100
atRp101
sS'UW_T_S'
p102
g82
((lp103
Vgrapefruits
p104
atRp105
sS'AA_T'
p106
g82
((lp107
Vloquat
p108
atRp109
sS'UW_T'
p110
g82
((lp111
Vgrapefruit
p112
aVbreadfruit
p113
atRp114
sS'AH_T'
p115
g82
((lp116
Vchestnut
p117
aVpeanut
p118
aVwalnut
p119
atRp120
sS'IY_N_Z'
p121
g82
((lp122
Vsoybeans
p123
atRp124
sS'IH_SH'
p125
g82
((lp126
Vswordfish
p127
aVcatfish
p128
atRp129
sS'AE_N_T_S'
p130
g82
((lp131
Veggplants
p132
atRp133
sS'AA_N'
p134
g82
((lp135
Vliaison
p136
aVpecan
p137
atRp138
sS'IY_L'
p139
g82
((lp140
Voatmeal
p141
aVcornmeal
p142
atRp143
sS'S_OW'
p144
g82
((lp145
Vtasso
p146
atRp147
sS'IY_T'
p148
g82
((lp149
Vbuckwheat
p150
atRp151
sS'AY_S'
p152
g82
((lp153
Vallspice
p154
atRp155
sS'AH_T_S'
p156
g82
((lp157
Vpeanuts
p158
aVwalnuts
p159
atRp160
sS'D_OW'
p161
g82
((lp162
Vudo
p163
atRp164
sS'AA_R_CH'
p165
g82
((lp166
Vcornstarch
p167
atRp168
sS'AA_R_B'
p169
g82
((lp170
Vrhubarb
p171
atRp172
sS'AE_N_T'
p173
g82
((lp174
Veggplant
p175
atRp176
ssS'10'
p177
(dp178
S'S_AH'
p179
g82
((lp180
Vsalsa
p181
atRp182
sS'K_IY'
p183
g82
((lp184
Vturkey
p185
atRp186
sS'R_IY'
p187
g82
((lp188
Vcherry
p189
aVberry
p190
aVsherry
p191
atRp192
sS'K_OW'
p193
g82
((lp194
Vpanko
p195
atRp196
sS'OW_Z'
p197
g82
((lp198
Vmangoes
p199
atRp200
sS'V_AH'
p201
g82
((lp202
Vguava
p203
atRp204
sS'S_L_IY'
p205
g82
((lp206
Vparsley
p207
atRp208
sS'K_R_AH'
p209
g82
((lp210
Vokra
p211
atRp212
sS'AH_P_S'
p213
g82
((lp214
Vscallops
p215
aVturnips
p216
atRp217
sS'T_ER'
p218
g82
((lp219
Vbutter
p220
aVwater
p221
atRp222
sS'AH_P'
p223
g82
((lp224
Vscallop
p225
aVturnip
p226
aVhyssop
p227
aVketchup
p228
atRp229
sS'N_AH'
p230
g82
((lp231
Vtuna
p232
atRp233
sS'IH_T'
p234
g82
((lp235
Vrabbit
p236
atRp237
sS'B_IY'
p238
g82
((lp239
Vcolby
p240
atRp241
sS'S_T_AH'
p242
g82
((lp243
Vpasta
p244
atRp245
sS'JH_ER'
p246
g82
((lp247
Vginger
p248
atRp249
sS'N_IY'
p250
g82
((lp251
Vhoney
p252
aVchutney
p253
atRp254
sS'G_OW'
p255
g82
((lp256
S'mango'
p257
aVsago
p258
atRp259
sS'IH_N_TH'
p260
g82
((lp261
Vabsinthe
p262
atRp263
sS'IH_N_JH'
p264
g82
((lp265
Vorange
p266
atRp267
sS'AH_Z'
p268
g82
((lp269
Vpeaches
p270
aVguavas
p271
atRp272
sS'K_L_IY'
p273
g82
((lp274
Vbroccoli
p275
atRp276
sS'AH_CH'
p277
g82
((lp278
Vspinach
p279
atRp280
sS'AH_V'
p281
g82
((lp282
Volive
p283
atRp284
sS'AH_T'
p285
g82
((lp286
g118
aVcarrot
p287
ag236
aVchocolate
p288
atRp289
sS'P_R_IY'
p290
g82
((lp291
Vlamprey
p292
atRp293
sS'AH_S'
p294
g82
((lp295
Vlotus
p296
aVlettuce
p297
aVanise
p298
aVcactus
p299
atRp300
sS'IH_SH'
p301
g82
((lp302
Vradish
p303
aVcrayfish
p304
atRp305
sS'IH_N_Z'
p306
g82
((lp307
Vraisins
p308
atRp309
sS'AH_N'
p310
g82
((lp311
Vlemon
p312
aVbaron
p313
aVonion
p314
aVcitron
p315
aVsalmon
p316
aVbacon
p317
aVcumin
p318
aVsaffron
p319
aVsturgeon
p320
aVlongan
p321
aVmelon
p322
aVplantain
p323
aVbourbon
p324
aVchicken
p325
aVgluten
p326
atRp327
sS'AH_L'
p328
g82
((lp329
Vturtle
p330
aVsorrel
p331
aVapple
p332
aVmuddle
p333
aVbagel
p334
aVfennel
p335
aVkugel
p336
aVtruffle
p337
aVbasil
p338
aVmussel
p339
aVlentil
p340
aVpickle
p341
atRp342
sS'AH_M'
p343
g82
((lp344
Valum
p345
aVsorghum
p346
aVedam
p347
atRp348
sS'AH_K'
p349
g82
((lp350
Vhaddock
p351
atRp352
sS'IH_NG'
p353
g82
((lp354
Vstuffing
p355
aVherring
p356
aVdripping
p357
aVdumpling
p358
aVshortening
p359
atRp360
sS'AH_F'
p361
g82
((lp362
Vwoodruff
p363
atRp364
sS'T_AH'
p365
g82
((lp366
Vmalta
p367
atRp368
sS'AH_N_D_Z'
p369
g82
((lp370
Valmonds
p371
atRp372
sS'ER'
p373
g82
((lp374
Vbanger
p375
aVflour
p376
atRp377
sS'AH_B'
p378
g82
((lp379
Vcarob
p380
atRp381
sS'K_AH'
p382
g82
((lp383
Vbabka
p384
atRp385
sS'S_T_ER'
p386
g82
((lp387
Vlobster
p388
aVgloucester
p389
atRp390
sS'V_ER'
p391
g82
((lp392
Vliver
p393
atRp394
sS'AH_N_T_S'
p395
g82
((lp396
Vpheasants
p397
atRp398
sS'AH_N_JH'
p399
g82
((lp400
g266
atRp401
sS'IH_V_Z'
p402
g82
((lp403
Volives
p404
atRp405
sS'ER_Z'
p406
g82
((lp407
Vbangers
p408
aVcapers
p409
aVlobsters
p410
atRp411
sS'G_ER'
p412
g82
((lp413
Vagar
p414
aVsugar
p415
atRp416
sS'ER_T'
p417
g82
((lp418
Vyogurt
p419
atRp420
sS'AH_N_D'
p421
g82
((lp422
Valmond
p423
atRp424
sS'D_IY'
p425
g82
((lp426
Vbrandy
p427
atRp428
sS'P_ER'
p429
g82
((lp430
Vcaper
p431
aVpepper
p432
aVsnapper
p433
aVgrouper
p434
atRp435
sS'IY_Z'
p436
g82
((lp437
Vcherries
p438
aVcookies
p439
aVberries
p440
aVturkeys
p441
aVlampreys
p442
atRp443
sS'F_IY'
p444
g82
((lp445
Vcoffee
p446
atRp447
sS'ER_D'
p448
g82
((lp449
Vcustard
p450
atRp451
sS'AA_T'
p452
g82
((lp453
Vkumquat
p454
atRp455
sS'AH_JH'
p456
g82
((lp457
Vcabbage
p458
aVlovage
p459
aVsausage
p460
atRp461
sS'IH_CH'
p462
g82
((lp463
Vsandwich
p464
atRp465
sS'IH_JH'
p466
g82
((lp467
g458
ag460
atRp468
sS'IH_V'
p469
g82
((lp470
g283
aVendive
p471
atRp472
sS'T_OW'
p473
g82
((lp474
Vbento
p475
atRp476
sS'D_ER'
p477
g82
((lp478
Vflounder
p479
aVchowder
p480
aVcider
p481
atRp482
sS'B_OW'
p483
g82
((lp484
Vgumbo
p485
atRp486
sS'F_UW'
p487
g82
((lp488
Vtofu
p489
atRp490
sS'Z_UW'
p491
g82
((lp492
Vkudzu
p493
atRp494
sS'SH_AH'
p495
g82
((lp496
Vkasha
p497
atRp498
sS'AH_T_S'
p499
g82
((lp500
g158
aVchestnuts
p501
aVcarrots
p502
aVrabbits
p503
atRp504
sS'AH_L_Z'
p505
g82
((lp506
Vlentils
p507
aVtruffles
p508
aVturtles
p509
aVmussels
p510
aVbagels
p511
aVapples
p512
aVpickles
p513
atRp514
sS'IH_Z'
p515
g82
((lp516
g270
aVpulses
p517
atRp518
sS'B_AH'
p519
g82
((lp520
Vbaba
p521
atRp522
sS'UW_M'
p523
g82
((lp524
Vmushroom
p525
atRp526
sS'SH_IY'
p527
g82
((lp528
Vsushi
p529
atRp530
sS'AE_K'
p531
g82
((lp532
Vsumac
p533
atRp534
sS'SH_ER'
p535
g82
((lp536
Vkosher
p537
atRp538
sS'L_IY'
p539
g82
((lp540
Vbarley
p541
atRp542
sS'AH_N_T'
p543
g82
((lp544
Vpheasant
p545
atRp546
sS'IH_N'
p547
g82
((lp548
Vraisin
p549
ag320
aVpoussin
p550
aVpumpkin
p551
atRp552
sS'UW_M_Z'
p553
g82
((lp554
Vmushrooms
p555
atRp556
sS'M_ER'
p557
g82
((lp558
Vsimmer
p559
atRp560
sS'IH_K'
p561
g82
((lp562
Vgarlic
p563
atRp564
sS'AH_N_Z'
p565
g82
((lp566
Vmelons
p567
ag315
aVplantains
p568
ag308
aVchickens
p569
aVpumpkins
p570
aVlemons
p571
aVonions
p572
atRp573
ssS'01'
p574
(dp575
S'AA_N'
p576
g82
((lp577
g137
atRp578
sS'F_L_EY'
p579
g82
((lp580
Vsouffle
p581
atRp582
sS'ER_V_Z'
p583
g82
((lp584
Vpreserves
p585
atRp586
sS'ER_T_S'
p587
g82
((lp588
Vdesserts
p589
atRp590
sS'IY_N'
p591
g82
((lp592
Vsardine
p593
atRp594
sS'ER_T'
p595
g82
((lp596
Vdessert
p597
atRp598
sS'IY_N_Z'
p599
g82
((lp600
Vsardines
p601
atRp602
sS'ER_V'
p603
g82
((lp604
Vpreserve
p605
atRp606
sS'AA_N_Z'
p607
g82
((lp608
g96
atRp609
sS'AE_N'
p610
g82
((lp611
g137
atRp612
sS'UW_TH'
p613
g82
((lp614
Vvermouth
p615
atRp616
sS'AE_N_Z'
p617
g82
((lp618
g96
atRp619
sS'AH_M'
p620
g82
((lp621
g345
atRp622
sS'EH_L'
p623
g82
((lp624
Vmorel
p625
atRp626
sS'T_EY'
p627
g82
((lp628
Vsaute
p629
atRp630
ssS'010'
p631
(dp632
S'N_IY'
p633
g82
((lp634
Vzucchini
p635
atRp636
sS'R_AH'
p637
g82
((lp638
Vmadeira
p639
atRp640
sS'AH_Z'
p641
g82
((lp642
Vpapayas
p643
aVmolasses
p644
aVbananas
p645
atRp646
sS'V_IY'
p647
g82
((lp648
Vanchovy
p649
atRp650
sS'AH'
p651
g82
((lp652
Vtortilla
p653
aVpapaya
p654
atRp655
sS'OW_Z'
p656
g82
((lp657
Vpotatoes
p658
aVtomatoes
p659
atRp660
sS'AH_N'
p661
g82
((lp662
Vinfusion
p663
atRp664
sS'AH_L'
p665
g82
((lp666
Vfalafel
p667
atRp668
sS'T_AH'
p669
g82
((lp670
Vvelveeta
p671
atRp672
sS'IY_Z'
p673
g82
((lp674
Vanchovies
p675
atRp676
sS'N_AH'
p677
g82
((lp678
Vbanana
p679
aVfarina
p680
atRp681
sS'OW'
p682
g82
((lp683
Vcacao
p684
atRp685
sS'B_IY'
p686
g82
((lp687
Vkohlrabi
p688
atRp689
sS'L_AH'
p690
g82
((lp691
Vmarsala
p692
aVgranola
p693
aVvanilla
p694
atRp695
sS'K_AH'
p696
g82
((lp697
Vpaprika
p698
atRp699
sS'T_R_OW'
p700
g82
((lp701
Vcilantro
p702
atRp703
sS'S_AH'
p704
g82
((lp705
Vkielbasa
p706
atRp707
ssS'0010'
p708
(dp709
S'T_OW'
p710
g82
((lp711
Vamaretto
p712
atRp713
ssS'0101'
p714
(dp715
S'OW'
p716
g82
((lp717
Vpistachio
p718
atRp719
sS'N_OW'
p720
g82
((lp721
Voregano
p722
atRp723
sS'OW_Z'
p724
g82
((lp725
Vpistachios
p726
atRp727
ssS'0100'
p728
(dp729
S'AH'
p730
g82
((lp731
Vfocaccia
p732
atRp733
sS'K_AH'
p734
g82
((lp735
Vangelica
p736
atRp737
sS'AH_S'
p738
g82
((lp739
Vasparagus
p740
atRp741
ssS'1'
(dp742
S'EY_S'
p743
g82
((lp744
Vmace
p745
aVbass
p746
atRp747
sS'EY_P'
p748
g82
((lp749
Vgrape
p750
atRp751
sS'OW_L_D'
p752
g82
((lp753
Vfold
p754
atRp755
sS'EY_T'
p756
g82
((lp757
Vdate
p758
atRp759
sS'EY_Z'
p760
g82
((lp761
Vbraise
p762
atRp763
sS'AE_B_Z'
p764
g82
((lp765
Vcrabs
p766
atRp767
sS'EY_K'
p768
g82
((lp769
Vsteak
p770
atRp771
sS'R_UW'
p772
g82
((lp773
Vroux
p774
atRp775
sS'EY_L'
p776
g82
((lp777
Vquail
p778
aVale
p779
aVkale
p780
atRp781
sS'EH_G_Z'
p782
g82
((lp783
Veggs
p784
atRp785
sS'UW_S'
p786
g82
((lp787
S'goose'
p788
atRp789
sS'UW_F'
p790
g82
((lp791
Vproof
p792
atRp793
sS'UW_N'
p794
g82
((lp795
Vprune
p796
atRp797
sS'AA_SH'
p798
g82
((lp799
Vsquash
p800
atRp801
sS'AO_L_D'
p802
g82
((lp803
Vscald
p804
atRp805
sS'AH_S_K'
p806
g82
((lp807
Vrusk
p808
atRp809
sS'CH_AY'
p810
g82
((lp811
Vchai
p812
atRp813
sS'OW_V_Z'
p814
g82
((lp815
Vcloves
p816
atRp817
sS'EH_R_Z'
p818
g82
((lp819
Vpears
p820
atRp821
sS'ER_B_Z'
p822
g82
((lp823
Vherbs
p824
atRp825
sS'EH_JH'
p826
g82
((lp827
Vdredge
p828
atRp829
sS'AY_M_Z'
p830
g82
((lp831
Vlimes
p832
atRp833
sS'OY_L'
p834
g82
((lp835
Vbroil
p836
aVboil
p837
atRp838
sS'AE_M_P_S'
p839
g82
((lp840
Vramps
p841
atRp842
sS'IY_S_T'
p843
g82
((lp844
Vyeast
p845
atRp846
sS'IH_G_Z'
p847
g82
((lp848
Vfigs
p849
atRp850
sS'AE_B'
p851
g82
((lp852
Vcrab
p853
atRp854
sS'AO_R_N'
p855
g82
((lp856
Vcorn
p857
atRp858
sS'AE_M'
p859
g82
((lp860
Vlamb
p861
aVclam
p862
aVham
p863
atRp864
sS'AO_R_K'
p865
g82
((lp866
Vpork
p867
atRp868
sS'AE_S'
p869
g82
((lp870
g746
atRp871
sS'AH_M'
p872
g82
((lp873
Vplum
p874
aVrum
p875
atRp876
sS'AH_K'
p877
g82
((lp878
Vduck
p879
atRp880
sS'IY_K_S'
p881
g82
((lp882
Vleeks
p883
atRp884
sS'AY_V_Z'
p885
g82
((lp886
Vchives
p887
atRp888
sS'IH_T_S'
p889
g82
((lp890
Vgrits
p891
atRp892
sS'AW_T'
p893
g82
((lp894
Vtrout
p895
atRp896
sS'ER_B'
p897
g82
((lp898
Vherb
p899
atRp900
sS'IH_T'
p901
g82
((lp902
Vgrit
p903
atRp904
sS'IH_R'
p905
g82
((lp906
Vsear
p907
aVbeer
p908
atRp909
sS'IH_G'
p910
g82
((lp911
Vfig
p912
atRp913
sS'IH_D'
p914
g82
((lp915
Vsquid
p916
atRp917
sS'AE_M_P'
p918
g82
((lp919
Vramp
p920
atRp921
sS'IH_L'
p922
g82
((lp923
Vdill
p924
atRp925
sS'AE_M_Z'
p926
g82
((lp927
Vclams
p928
atRp929
sS'EH_R'
p930
g82
((lp931
Vpear
p932
atRp933
sS'EY_T_S'
p934
g82
((lp935
Vdates
p936
atRp937
sS'OW_L'
p938
g82
((lp939
Vsole
p940
atRp941
sS'ER_CH'
p942
g82
((lp943
Vperch
p944
atRp945
sS'EH_G'
p946
g82
((lp947
Vegg
p948
atRp949
sS'AO_R_SH_T'
p950
g82
((lp951
Vborscht
p952
atRp953
sS'AO_L'
p954
g82
((lp955
Vcaul
p956
atRp957
sS'AA_L'
p958
g82
((lp959
g956
atRp960
sS'AO_N'
p961
g82
((lp962
Vprawn
p963
atRp964
sS'UH_T'
p965
g82
((lp966
S'foot'
p967
atRp968
sS'IY_N'
p969
g82
((lp970
Vbean
p971
aVgreen
p972
atRp973
sS'AE_N_CH'
p974
g82
((lp975
Vblanch
p976
atRp977
sS'IY_L'
p978
g82
((lp979
Veel
p980
aVveal
p981
atRp982
sS'IY_K'
p983
g82
((lp984
Vleek
p985
atRp986
sS'IH_N_CH'
p987
g82
((lp988
Vpinch
p989
atRp990
sS'EY_P_S'
p991
g82
((lp992
Vgrapes
p993
atRp994
sS'AO_TH'
p995
g82
((lp996
Vbroth
p997
atRp998
sS'AE_SH'
p999
g82
((lp1000
Vdash
p1001
atRp1002
sS'IY_T_S'
p1003
g82
((lp1004
Vbeets
p1005
atRp1006
sS'IY_Z'
p1007
g82
((lp1008
Vcheese
p1009
aVpeas
p1010
atRp1011
sS'UW_N_Z'
p1012
g82
((lp1013
Vprunes
p1014
atRp1015
sS'G_IY'
p1016
g82
((lp1017
Vghee
p1018
atRp1019
sS'IY_D'
p1020
g82
((lp1021
Vseed
p1022
atRp1023
sS'IY_T'
p1024
g82
((lp1025
Vbeat
p1026
aVfeet
p1027
aVbeet
p1028
atRp1029
sS'IY_S'
p1030
g82
((lp1031
Vgeese
p1032
atRp1033
sS'AW_L'
p1034
g82
((lp1035
Vjowl
p1036
atRp1037
sS'AH_L_S'
p1038
g82
((lp1039
Vpulse
p1040
atRp1041
sS'AY_S'
p1042
g82
((lp1043
Vrice
p1044
aVdice
p1045
atRp1046
sS'AY_P'
p1047
g82
((lp1048
Vtripe
p1049
atRp1050
sS'ER_SH'
p1051
g82
((lp1052
Vkirsch
p1053
atRp1054
sS'IH_M_P'
p1055
g82
((lp1056
Vshrimp
p1057
atRp1058
sS'AA_R_K'
p1059
g82
((lp1060
Vquark
p1061
atRp1062
sS'IH_S_K'
p1063
g82
((lp1064
Vbisque
p1065
atRp1066
sS'AY_M'
p1067
g82
((lp1068
Vthyme
p1069
aVlime
p1070
atRp1071
sS'AY_K'
p1072
g82
((lp1073
Vpike
p1074
atRp1075
sS'OW_CH'
p1076
g82
((lp1077
Vpoach
p1078
atRp1079
sS'AA_R_D'
p1080
g82
((lp1081
Vbard
p1082
aVchard
p1083
atRp1084
sS'AW_R'
p1085
g82
((lp1086
g376
atRp1087
sS'IY_L_Z'
p1088
g82
((lp1089
Veels
p1090
atRp1091
sS'IY_M'
p1092
g82
((lp1093
Vsteam
p1094
atRp1095
sS'IH_N_T'
p1096
g82
((lp1097
Vmint
p1098
atRp1099
sS'IH_N_S'
p1100
g82
((lp1101
Vquince
p1102
aVmince
p1103
atRp1104
sS'IY_CH'
p1105
g82
((lp1106
Vpeach
p1107
atRp1108
sS'AY_N'
p1109
g82
((lp1110
Vwine
p1111
atRp1112
sS'EH_L_T'
p1113
g82
((lp1114
Vsmelt
p1115
atRp1116
sS'AO_L_T'
p1117
g82
((lp1118
Vsalt
p1119
atRp1120
sS'IY_N_Z'
p1121
g82
((lp1122
Vbeans
p1123
aVgreens
p1124
atRp1125
sS'AA_N_D'
p1126
g82
((lp1127
Vfond
p1128
atRp1129
sS'EY_K_S'
p1130
g82
((lp1131
Vsteaks
p1132
atRp1133
sS'IY_F'
p1134
g82
((lp1135
Vbeef
p1136
atRp1137
sS'AO_N_Z'
p1138
g82
((lp1139
Vprawns
p1140
atRp1141
sS'AA_D'
p1142
g82
((lp1143
Vcod
p1144
atRp1145
sS'OY_N_T'
p1146
g82
((lp1147
Vjoint
p1148
atRp1149
sS'P_IY'
p1150
g82
((lp1151
Vpea
p1152
atRp1153
sS'EY_JH'
p1154
g82
((lp1155
Vsage
p1156
atRp1157
sS'EH_S_T'
p1158
g82
((lp1159
Vzest
p1160
atRp1161
sS'IH_L_K'
p1162
g82
((lp1163
Vmilk
p1164
atRp1165
sS'AH_M_Z'
p1166
g82
((lp1167
Vplums
p1168
atRp1169
sS'T_IY'
p1170
g82
((lp1171
Vtea
p1172
atRp1173
ssS'011'
p1174
(dp1175
S'AA_N'
p1176
g82
((lp1177
g136
atRp1178
sS'T_OW'
p1179
g82
((lp1180
S'tomato'
p1181
aS'potato'
p1182
atRp1183
ssS'111'
p1184
(dp1185
S'D_IY'
p1186
g82
((lp1187
g1144
atRp1188
ssS'110'
p1189
(dp1190
S'AH_L_Z'
p1191
g82
((lp1192
Vpineapples
p1193
atRp1194
sS'AH_Z'
p1195
g82
((lp1196
Vtortillas
p1197
atRp1198
sS'V_IY'
p1199
g82
((lp1200
g649
atRp1201
sS'L_OW'
p1202
g82
((lp1203
Vmarshmallow
p1204
atRp1205
sS'R_IY'
p1206
g82
((lp1207
Vgooseberry
p1208
aVstrawberry
p1209
aVblackberry
p1210
aVcranberry
p1211
aVraspberry
p1212
aVrosemary
p1213
aVblueberry
p1214
atRp1215
sS'OW_Z'
p1216
g82
((lp1217
Vmarshmallows
p1218
atRp1219
sS'IH_SH'
p1220
g82
((lp1221
Vhorseradish
p1222
atRp1223
sS'AH_N'
p1224
g82
((lp1225
Vmuskmelon
p1226
aVbouillon
p1227
atRp1228
sS'AH_L'
p1229
g82
((lp1230
Vpineapple
p1231
atRp1232
sS'IY_Z'
p1233
g82
((lp1234
Vblueberries
p1235
aVraspberries
p1236
aVblackberries
p1237
aVgooseberries
p1238
ag675
aVstrawberries
p1239
aVcranberries
p1240
atRp1241
ssS'1100'
p1242
(dp1243
S'IY'
p1244
g82
((lp1245
Vrotisserie
p1246
atRp1247
ssS'1101'
p1248
(dp1249
S'N_OW'
p1250
g82
((lp1251
g722
atRp1252
ssS'100'
p1253
(dp1254
S'IY'
p1255
g82
((lp1256
Vcelery
p1257
aVsavory
p1258
atRp1259
sS'D_ER'
p1260
g82
((lp1261
Vlavender
p1262
atRp1263
sS'AH_Z'
p1264
g82
((lp1265
Voranges
p1266
atRp1267
sS'ER_Z'
p1268
g82
((lp1269
Vcucumbers
p1270
atRp1271
sS'G_ER'
p1272
g82
((lp1273
Vvinegar
p1274
aVhamburger
p1275
atRp1276
sS'AH_T'
p1277
g82
((lp1278
Vhalibut
p1279
atRp1280
sS'IH_Z'
p1281
g82
((lp1282
Vradishes
p1283
aVsausages
p1284
ag1266
atRp1285
sS'AH_N'
p1286
g82
((lp1287
Vgelatin
p1288
aVvenison
p1289
aVlecithin
p1290
aVcinnamon
p1291
aVmargarine
p1292
atRp1293
sS'AH_L'
p1294
g82
((lp1295
Vmackerel
p1296
atRp1297
sS'AH_M'
p1298
g82
((lp1299
Vmarjoram
p1300
atRp1301
sS'L_IY'
p1302
g82
((lp1303
g275
atRp1304
sS'IH_NG'
p1305
g82
((lp1306
g359
atRp1307
sS'IH_N'
p1308
g82
((lp1309
g1290
atRp1310
sS'OW_N'
p1311
g82
((lp1312
Vprovolone
p1313
atRp1314
sS'B_ER'
p1315
g82
((lp1316
Vcucumber
p1317
atRp1318
sS'N_IY'
p1319
g82
((lp1320
Vhominy
p1321
atRp1322
ssS'101'
p1323
(dp1324
S'OW_P'
p1325
g82
((lp1326
Vcantaloupe
p1327
atRp1328
sS'EY_Z'
p1329
g82
((lp1330
Vmayonnaise
p1331
atRp1332
sS'OW_P_S'
p1333
g82
((lp1334
Vcantaloupes
p1335
atRp1336
sS'EH_T'
p1337
g82
((lp1338
Vflageolet
p1339
atRp1340
sS'AY_T'
p1341
g82
((lp1342
Vvegemite
p1343
atRp1344
sS'EY_D'
p1345
g82
((lp1346
Vmarmalade
p1347
atRp1348
sS'OW_L'
p1349
g82
((lp1350
Vcasserole
p1351
atRp1352
sS'OW_K'
p1353
g82
((lp1354
Vartichoke
p1355
atRp1356
sS'UW_T'
p1357
g82
((lp1358
Varrowroot
p1359
atRp1360
sS'AO_S'
p1361
g82
((lp1362
Vapplesauce
p1363
atRp1364
sS'AE_N_TH'
p1365
g82
((lp1366
Vamaranth
p1367
atRp1368
sS'AH_T'
p1369
g82
((lp1370
Vcoconut
p1371
aVhazelnut
p1372
atRp1373
sS'F_AY'
p1374
g82
((lp1375
Vclarify
p1376
atRp1377
sS'EH_S'
p1378
g82
((lp1379
Vwatercress
p1380
atRp1381
sS'UH_S'
p1382
g82
((lp1383
Voctopus
p1384
atRp1385
sS'IY_N'
p1386
g82
((lp1387
Vmangosteen
p1388
atRp1389
sS'IY_K'
p1390
g82
((lp1391
Vfenugreek
p1392
atRp1393
sS'S_AW'
p1394
g82
((lp1395
Vcuracao
p1396
atRp1397
sS'OW_K_S'
p1398
g82
((lp1399
Vartichokes
p1400
atRp1401
sS'AA_T_S'
p1402
g82
((lp1403
Vapricots
p1404
atRp1405
sS'AA_T'
p1406
g82
((lp1407
Vapricot
p1408
atRp1409
sS'AA_R'
p1410
g82
((lp1411
Vcaviar
p1412
atRp1413
sS'IH_L_K'
p1414
g82
((lp1415
Vbuttermilk
p1416
atRp1417
sS'N_OW'
p1418
g82
((lp1419
Vpompano
p1420
atRp1421
sS'AH_T_S'
p1422
g82
((lp1423
Vcoconuts
p1424
aVhazelnuts
p1425
atRp1426
sS'AW_T'
p1427
g82
((lp1428
Vsauerkraut
p1429
atRp1430
ssS'1010'
p1431
(dp1432
S'D_ER'
p1433
g82
((lp1434
Vcoriander
p1435
atRp1436
sS'R_IY'
p1437
g82
((lp1438
Vhuckleberry
p1439
atRp1440
sS'OW_Z'
p1441
g82
((lp1442
Vavocados
p1443
atRp1444
sS'AH_N'
p1445
g82
((lp1446
Vwatermelon
p1447
atRp1448
sS'D_OW'
p1449
g82
((lp1450
Vavocado
p1451
atRp1452
sS'T_ER'
p1453
g82
((lp1454
Valligator
p1455
atRp1456
sS'AH_N_Z'
p1457
g82
((lp1458
Vwatermelons
p1459
atRp1460
sS'N_AH'
p1461
g82
((lp1462
Vsemolina
p1463
atRp1464
sS'N_IY'
p1465
g82
((lp1466
Vmacaroni
p1467
aVabalone
p1468
atRp1469
sS'K_AH'
p1470
g82
((lp1471
g736
atRp1472
sS'ER'
p1473
g82
((lp1474
Vcauliflower
p1475
atRp1476
ssS'1001'
p1477
(dp1478
S'AY_Z'
p1479
g82
((lp1480
Vcaramelize
p1481
atRp1482
ssS'1000'
p1483
(dp1484
S'AH_D'
p1485
g82
((lp1486
Vdesiccated
p1487
atRp1488
ssa.